target datalayout = "e-m:e-p270:32:32-p271:32:32-p272:64:64-i64:64-i128:128-f80:128-n8:16:32:64-S128"
target triple = "x86_64-pc-linux-gnu"

%struct._zend_refcounted_h = type { i32, %union.anon.3 }
%union.anon.3 = type { i32 }
%struct._zend_resource = type { %struct._zend_refcounted_h, i64, i32, ptr }
%struct.php_user_stream_wrapper = type { %struct._php_stream_wrapper, ptr, ptr, ptr }
%struct._php_stream_wrapper = type { ptr, ptr, i32 }

; Function Attrs: nounwind uwtable
define internal void @stream_wrapper_dtor(ptr noundef %0) #0 {
  %2 = alloca ptr, align 8
  %3 = alloca ptr, align 8
  store ptr %0, ptr %2, align 8
  %4 = load ptr, ptr %2, align 8
  %5 = getelementptr inbounds %struct._zend_resource, ptr %4, i32 0, i32 3
  %6 = load ptr, ptr %5, align 8
  store ptr %6, ptr %3, align 8
  %7 = load ptr, ptr %3, align 8
  %8 = getelementptr inbounds %struct.php_user_stream_wrapper, ptr %7, i32 0, i32 1
  %9 = load ptr, ptr %8, align 8
  call void @_efree(ptr noundef %9)
  %10 = load ptr, ptr %3, align 8
  call void @_efree(ptr noundef %10)
  ret void
}