; Function Attrs: nounwind uwtable
define internal void @stream_wrapper_dtor(ptr nocapture noundef readonly %0) #0 {
  %2 = getelementptr inbounds i8, ptr %0, i64 24
  %3 = load ptr, ptr %2, align 8
  %4 = getelementptr inbounds i8, ptr %3, i64 24
  %5 = load ptr, ptr %4, align 8
  tail call void @_efree(ptr noundef %5) #11
  tail call void @_efree(ptr noundef %3) #11
  ret void
}